(lp1
S'Ym'
p2
aS'yottameter'
p3
aS'zettameter'
p4
aS'exameter'
p5
aS'petameter'
p6
aS'terameter'
p7
aS'gigameter'
p8
aS'megameter'
p9
aS'kilometer'
p10
aS'hectometer'
p11
aS'decameter'
p12
aS'decimeter'
p13
aS'centimeter'
p14
aS'micrometer'
p15
aS'nanometer'
p16
aS'picometer'
p17
aS'femtometer'
p18
aS'attometer'
p19
aS'zeptometer'
p20
aS'yoctometer'
p21
aS'Zm'
p22
aS'Em'
p23
aS'Pm'
p24
aS'Tm'
p25
aS'Gm'
p26
aS'Mm'
p27
aS'km'
p28
aS'hm'
p29
aS'dam'
p30
aS'dm'
p31
aS'cm'
p32
aS'\\u03bcm'
p33
aS'nm'
p34
aS'pm'
p35
aS'fm'
p36
aS'am'
p37
aS'zm'
p38
aS'ym'
p39
aS'Ym2'
p40
aS'Zm2'
p41
aS'Em2'
p42
aS'Pm2'
p43
aS'Tm2'
p44
aS'Gm2'
p45
aS'Mm2'
p46
aS'km2'
p47
aS'hm2'
p48
aS'dam2'
p49
aS'dm2'
p50
aS'cm2'
p51
aS'\\u03bcm2'
p52
aS'nm2'
p53
aS'pm2'
p54
aS'fm2'
p55
aS'am2'
p56
aS'zm2'
p57
aS'ym2'
p58
aS'square yottameter'
p59
aS'square zettameter'
p60
aS'square exameter'
p61
aS'square petameter'
p62
aS'square terameter'
p63
aS'square gigameter'
p64
aS'square megameter'
p65
aS'square kilometer'
p66
aS'square hectometer'
p67
aS'square decameter'
p68
aS'square decimeter'
p69
aS'square centimeter'
p70
aS'square micrometer'
p71
aS'square nanometer'
p72
aS'square picometer'
p73
aS'square femtometer'
p74
aS'square attometer'
p75
aS'square zeptometer'
p76
aS'square yoctometer'
p77
aS'Ym3'
p78
aS'Zm3'
p79
aS'Em3'
p80
aS'Pm3'
p81
aS'Tm3'
p82
aS'Gm3'
p83
aS'Mm3'
p84
aS'km3'
p85
aS'hm3'
p86
aS'dam3'
p87
aS'dm3'
p88
aS'cm3'
p89
aS'\\u03bcm3'
p90
aS'nm3'
p91
aS'pm3'
p92
aS'fm3'
p93
aS'am3'
p94
aS'zm3'
p95
aS'ym3'
p96
aS'cubic yottameter'
p97
aS'cubic zettameter'
p98
aS'cubic exameter'
p99
aS'cubic petameter'
p100
aS'cubic terameter'
p101
aS'cubic gigameter'
p102
aS'cubic megameter'
p103
aS'cubic kilometer'
p104
aS'cubic hectometer'
p105
aS'cubic decameter'
p106
aS'cubic decimeter'
p107
aS'cubic centimeter'
p108
aS'cubic micrometer'
p109
aS'cubic nanometer'
p110
aS'cubic picometer'
p111
aS'cubic femtometer'
p112
aS'cubic attometer'
p113
aS'cubic zeptometer'
p114
aS'cubic yoctometer'
p115
aS'YL'
p116
aS'yottaliter'
p117
aS'zettaliter'
p118
aS'exaliter'
p119
aS'petaliter'
p120
aS'teraliter'
p121
aS'gigaliter'
p122
aS'megaliter'
p123
aS'kiloliter'
p124
aS'hectoliter'
p125
aS'decaliter'
p126
aS'deciliter'
p127
aS'centiliter'
p128
aS'microliter'
p129
aS'nanoliter'
p130
aS'picoliter'
p131
aS'femtoliter'
p132
aS'attoliter'
p133
aS'zeptoliter'
p134
aS'yoctoliter'
p135
aS'ZL'
p136
aS'EL'
p137
aS'PL'
p138
aS'TL'
p139
aS'GL'
p140
aS'ML'
p141
aS'kL'
p142
aS'hL'
p143
aS'daL'
p144
aS'dL'
p145
aS'cL'
p146
aS'\\u03bcL'
p147
aS'nL'
p148
aS'pL'
p149
aS'fL'
p150
aS'aL'
p151
aS'zL'
p152
aS'yL'
p153
aS'Yg'
p154
aS'yottagram'
p155
aS'zettagram'
p156
aS'exagram'
p157
aS'petagram'
p158
aS'teragram'
p159
aS'gigagram'
p160
aS'megagram'
p161
aS'kilogram'
p162
aS'hectogram'
p163
aS'decagram'
p164
aS'decigram'
p165
aS'centigram'
p166
aS'microgram'
p167
aS'nanogram'
p168
aS'picogram'
p169
aS'femtogram'
p170
aS'attogram'
p171
aS'zeptogram'
p172
aS'yoctogram'
p173
aS'Zg'
p174
aS'Eg'
p175
aS'Pg'
p176
aS'Tg'
p177
aS'Gg'
p178
aS'Mg'
p179
aS'kg'
p180
aS'hg'
p181
aS'dag'
p182
aS'dg'
p183
aS'cg'
p184
aS'\\u03bcg'
p185
aS'ng'
p186
aS'pg'
p187
aS'fg'
p188
aS'ag'
p189
aS'zg'
p190
aS'yg'
p191
aS'Ymol'
p192
aS'yottamoles'
p193
aS'zettamoles'
p194
aS'examoles'
p195
aS'petamoles'
p196
aS'teramoles'
p197
aS'gigamoles'
p198
aS'megamoles'
p199
aS'kilomoles'
p200
aS'hectomoles'
p201
aS'decamoles'
p202
aS'decimoles'
p203
aS'centimoles'
p204
aS'micromoles'
p205
aS'nanomoles'
p206
aS'picomoles'
p207
aS'femtomoles'
p208
aS'attomoles'
p209
aS'zeptomoles'
p210
aS'yoctomoles'
p211
aS'Zmol'
p212
aS'Emol'
p213
aS'Pmol'
p214
aS'Tmol'
p215
aS'Gmol'
p216
aS'Mmol'
p217
aS'kmol'
p218
aS'hmol'
p219
aS'damol'
p220
aS'dmol'
p221
aS'cmol'
p222
aS'\\u03bcmol'
p223
aS'nmol'
p224
aS'pmol'
p225
aS'fmol'
p226
aS'amol'
p227
aS'zmol'
p228
aS'ymol'
p229
aS'Yg/mol'
p230
aS'Yg per mol'
p231
aS'Yg/L'
p232
aS'Yg per liter'
p233
aS'yottagram/mol'
p234
aS'yottagram per mol'
p235
aS'yottagram/L'
p236
aS'yottagram per liter'
p237
aS'zettagram/mol'
p238
aS'zettagram per mol'
p239
aS'zettagram/L'
p240
aS'zettagram per liter'
p241
aS'exagram/mol'
p242
aS'exagram per mol'
p243
aS'exagram/L'
p244
aS'exagram per liter'
p245
aS'petagram/mol'
p246
aS'petagram per mol'
p247
aS'petagram/L'
p248
aS'petagram per liter'
p249
aS'teragram/mol'
p250
aS'teragram per mol'
p251
aS'teragram/L'
p252
aS'teragram per liter'
p253
aS'gigagram/mol'
p254
aS'gigagram per mol'
p255
aS'gigagram/L'
p256
aS'gigagram per liter'
p257
aS'megagram/mol'
p258
aS'megagram per mol'
p259
aS'megagram/L'
p260
aS'megagram per liter'
p261
aS'kilogram/mol'
p262
aS'kilogram per mol'
p263
aS'kilogram/L'
p264
aS'kilogram per liter'
p265
aS'hectogram/mol'
p266
aS'hectogram per mol'
p267
aS'hectogram/L'
p268
aS'hectogram per liter'
p269
aS'decagram/mol'
p270
aS'decagram per mol'
p271
aS'decagram/L'
p272
aS'decagram per liter'
p273
aS'decigram/mol'
p274
aS'decigram per mol'
p275
aS'decigram/L'
p276
aS'decigram per liter'
p277
aS'centigram/mol'
p278
aS'centigram per mol'
p279
aS'centigram/L'
p280
aS'centigram per liter'
p281
aS'microgram/mol'
p282
aS'microgram per mol'
p283
aS'microgram/L'
p284
aS'microgram per liter'
p285
aS'nanogram/mol'
p286
aS'nanogram per mol'
p287
aS'nanogram/L'
p288
aS'nanogram per liter'
p289
aS'picogram/mol'
p290
aS'picogram per mol'
p291
aS'picogram/L'
p292
aS'picogram per liter'
p293
aS'femtogram/mol'
p294
aS'femtogram per mol'
p295
aS'femtogram/L'
p296
aS'femtogram per liter'
p297
aS'attogram/mol'
p298
aS'attogram per mol'
p299
aS'attogram/L'
p300
aS'attogram per liter'
p301
aS'zeptogram/mol'
p302
aS'zeptogram per mol'
p303
aS'zeptogram/L'
p304
aS'zeptogram per liter'
p305
aS'yoctogram/mol'
p306
aS'yoctogram per mol'
p307
aS'yoctogram/L'
p308
aS'yoctogram per liter'
p309
aS'Zg/mol'
p310
aS'Zg per mol'
p311
aS'Zg/L'
p312
aS'Zg per liter'
p313
aS'Eg/mol'
p314
aS'Eg per mol'
p315
aS'Eg/L'
p316
aS'Eg per liter'
p317
aS'Pg/mol'
p318
aS'Pg per mol'
p319
aS'Pg/L'
p320
aS'Pg per liter'
p321
aS'Tg/mol'
p322
aS'Tg per mol'
p323
aS'Tg/L'
p324
aS'Tg per liter'
p325
aS'Gg/mol'
p326
aS'Gg per mol'
p327
aS'Gg/L'
p328
aS'Gg per liter'
p329
aS'Mg/mol'
p330
aS'Mg per mol'
p331
aS'Mg/L'
p332
aS'Mg per liter'
p333
aS'kg/mol'
p334
aS'kg per mol'
p335
aS'kg/L'
p336
aS'kg per liter'
p337
aS'hg/mol'
p338
aS'hg per mol'
p339
aS'hg/L'
p340
aS'hg per liter'
p341
aS'dag/mol'
p342
aS'dag per mol'
p343
aS'dag/L'
p344
aS'dag per liter'
p345
aS'dg/mol'
p346
aS'dg per mol'
p347
aS'dg/L'
p348
aS'dg per liter'
p349
aS'cg/mol'
p350
aS'cg per mol'
p351
aS'cg/L'
p352
aS'cg per liter'
p353
aS'\\u03bcg/mol'
p354
aS'\\u03bcg per mol'
p355
aS'\\u03bcg/L'
p356
aS'\\u03bcg per liter'
p357
aS'ng/mol'
p358
aS'ng per mol'
p359
aS'ng/L'
p360
aS'ng per liter'
p361
aS'pg/mol'
p362
aS'pg per mol'
p363
aS'pg/L'
p364
aS'pg per liter'
p365
aS'fg/mol'
p366
aS'fg per mol'
p367
aS'fg/L'
p368
aS'fg per liter'
p369
aS'ag/mol'
p370
aS'ag per mol'
p371
aS'ag/L'
p372
aS'ag per liter'
p373
aS'zg/mol'
p374
aS'zg per mol'
p375
aS'zg/L'
p376
aS'zg per liter'
p377
aS'yg/mol'
p378
aS'yg per mol'
p379
aS'yg/L'
p380
aS'yg per liter'
p381
aS'mg/kg'
p382
a.