(lp1
VA1C
p2
aVA2N
p3
aVAABE
p4
aVAABS
p5
aVAAM
p6
aVAAMB
p7
aVAAOB
p8
aVAAOB
p9
aVABATS
p10
aVABBM
p11
aVABCD
p12
aVABEB
p13
aVABI
p14
aVABL
p15
aVABM
p16
aVABMI
p17
aVABMN
p18
aVABP
p19
aVABR
p20
aVABRC
p21
aVABRC
p22
aVABRS
p23
aVACCB
p24
aVACIB
p25
aVACME
p26
aVADBC
p27
aVADBW
p28
aVADN
p29
aVADNF
p30
aVAEM
p31
aVAEM
p32
aVAFC
p33
aVAGBT
p34
aVAHB
p35
aVAHB
p36
aVAIBB
p37
aVAJBMS
p38
aVALEURO-
p39
aVAMB
p40
aVAMBL
p41
aVAMBO
p42
aVAMSB
p43
aVANG
p44
aVAPB
p45
aVAPDBN
p46
aVARBC
p47
aVARBG
p48
aVASBF
p49
aVASBMB
p50
aVASBS
p51
aVASBS
p52
aVASCB
p53
aVASM
p54
aVASMB
p55
aVASSB
p56
aVASSET
p57
aVATBC
p58
aVATBC
p59
aVATO
p60
aVBACON
p61
aVBAEC
p62
aVBAFF
p63
aVBAFM
p64
aVBAIR
p65
aVBASC
p66
aVBASK
p67
aVBBAL
p68
aVBBB
p69
aVBBCB
p70
aVBBD
p71
aVBBDR
p72
aVBBE
p73
aVBBE
p74
aVBBEC
p75
aVBBF
p76
aVBBFS
p77
aVBBIC
p78
aVBBMB
p79
aVBBMB
p80
aVBBO
p81
aVBBOL
p82
aVBBS
p83
aVBBSS
p84
aVBCB
p85
aVBCB
p86
aVBCB
p87
aVBCBB
p88
aVBCBB
p89
aVBCBB
p90
aVBCBB
p91
aVBCBC
p92
aVBCDB
p93
aVBCDE
p94
aVBCES
p95
aVBCMP
p96
aVBCO
p97
aVBCRB
p98
aVBCRC
p99
aVBCSB
p100
aVBCTP
p101
aVBDA
p102
aVBDAM
p103
aVBDG
p104
aVBDIR
p105
aVBDKB
p106
aVBDRC
p107
aVBDRS
p108
aVBEIR
p109
aVBEIR
p110
aVBELLE
p111
aVBEMF
p112
aVBESB
p113
aVBESC
p114
aVBESC
p115
aVBFIJ
p116
aVBFP
p117
aVBFRF
p118
aVBFT
p119
aVBGES
p120
aVBGP
p121
aVBGPS
p122
aVBHDI
p123
aVBHL
p124
aVBICB
p125
aVBICS
p126
aVBID
p127
aVBIDC
p128
aVBIF
p129
aVBIGH
p130
aVBINP
p131
aVBIO
p132
aVBIOLOGIC
p133
aVBIOLOGY
p134
aVBIOS
p135
aVBIOS
p136
aVBIRM
p137
aVBIRP
p138
aVBLBB
p139
aVBLCL
p140
aVBLMT
p141
aVBMB
p142
aVBMB
p143
aVBMDM
p144
aVBMSB
p145
aVBMSB
p146
aVBMSS
p147
aVBMWP
p148
aVBNR
p149
aVBNSG
p150
aVBOB
p151
aVBOLO
p152
aVBOR
p153
aVBPB
p154
aVBPDR
p155
aVBPDR
p156
aVBPN
p157
aVBPPH
p158
aVBPPM
p159
aVBPRP
p160
aVBPT
p161
aVBRAP
p162
aVBRC
p163
aVBRF
p164
aVBRIL
p165
aVBRIL
p166
aVBRMP
p167
aVBSAT
p168
aVBSBC
p169
aVBSBC
p170
aVBSBE
p171
aVBSBE
p172
aVBSBE
p173
aVBSBS
p174
aVBSC
p175
aVBSCB
p176
aVBSCB
p177
aVBSCB
p178
aVBSCD
p179
aVBSCS
p180
aVBSE
p181
aVBSGC
p182
aVBSGS
p183
aVBSP
p184
aVBSP
p185
aVBSPC
p186
aVBSRS
p187
aVBSS
p188
aVBSSG
p189
aVBSSP
p190
aVBSTP
p191
aVBTAG
p192
aVBTK
p193
aVBTO
p194
aVBTP
p195
aVBTRC
p196
aVBTRP
p197
aVBTT
p198
aVBUA
p199
aVBUS
p200
aVBUSA
p201
aVBVS
p202
aVBWD
p203
aVBWIC
p204
aVCABA
p205
aVCABER
p206
aVCABI
p207
aVCABRI
p208
aVCABS
p209
aVCAMB
p210
aVCATP
p211
aVCBAMP
p212
aVCBAS
p213
aVCBB
p214
aVCBB
p215
aVCBBG
p216
aVCBBG
p217
aVCBBI
p218
aVCBBI
p219
aVCBCB
p220
aVCBCB
p221
aVCBCC
p222
aVCBCD
p223
aVCBCL
p224
aVCBCL
p225
aVCBCL
p226
aVCBD
p227
aVCBDP
p228
aVCBEP
p229
aVCBFS
p230
aVCBFS
p231
aVCBIAC
p232
aVCBIB
p233
aVCBID
p234
aVCBID
p235
aVCBIF
p236
aVCBIL
p237
aVCBIRF
p238
aVCBM
p239
aVCBM
p240
aVCBMG
p241
aVCBMP
p242
aVCBMP
p243
aVCBNA
p244
aVCBNS
p245
aVCBPG
p246
aVCBPG
p247
aVCBPS
p248
aVCBRC
p249
aVCBRC
p250
aVCBRC
p251
aVCBRD
p252
aVCBRG
p253
aVCBRI
p254
aVCBRN
p255
aVCBRN
p256
aVCBRNDC
p257
aVCBRNDC
p258
aVCBRNDC
p259
aVCBSB
p260
aVCBSE
p261
aVCBSIs
p262
aVCBSP
p263
aVCBSU
p264
aVCBTA
p265
aVCBWG
p266
aVCCB
p267
aVCCB
p268
aVCCB
p269
aVCCB
p270
aVCCBB
p271
aVCCBB
p272
aVCCBI
p273
aVCCBL
p274
aVCCBL
p275
aVCCBN
p276
aVCCBS
p277
aVCCBT
p278
aVCCCB
p279
aVCCD
p280
aVCCIB
p281
aVCCL4
p282
aVCCMB
p283
aVCCMB
p284
aVCCMB
p285
aVCCMB
p286
aVCCRM
p287
aVCCSB
p288
aVCCSB
p289
aVCCSB
p290
aVCCTB
p291
aVCDB
p292
aVCDCB
p293
aVCDIB
p294
aVCDMB
p295
aVcDNA
p296
aVCEBS
p297
aVCECB
p298
aVCECB
p299
aVCECB
p300
aVCEFB
p301
aVCEWB
p302
aVCFB
p303
aVCFU
p304
aVCGMD
p305
aVCGN
p306
aVCHRO
p307
aVCIATT
p308
aVCIMB
p309
aVCLIMB
p310
aVCMB
p311
aVCMB
p312
aVCMBG
p313
aVCMBN
p314
aVCMBN
p315
aVCMCB
p316
aVCMCB
p317
aVCMCB
p318
aVCMCB
p319
aVCMDB
p320
aVCMGF
p321
aVCMIB
p322
aVCMIB
p323
aVCMIB
p324
aVCMID
p325
aVCMMB
p326
aVCMMB
p327
aVCMMB
p328
aVCMMI
p329
aVCMPT
p330
aVCMR
p331
aVCMRS
p332
aVCMSB
p333
aVCMSB
p334
aVCNBD
p335
aVCNBT
p336
aVCNL
p337
aVCNSB
p338
aVCOBD
p339
aVCOBS
p340
aVCOROS
p341
aVCPB
p342
aVCPB
p343
aVCPBS
p344
aVCPE
p345
aVCPIB
p346
aVCRB
p347
aVCRB
p348
aVCRF
p349
aVCSAB
p350
aVCSB
p351
aVCSB
p352
aVCSB
p353
aVCSBB
p354
aVCSBB
p355
aVCSBC
p356
aVCSBMCB
p357
aVCSBMCB
p358
aVCSBMCB
p359
aVCSBR
p360
aVCSBS
p361
aVCSCB
p362
aVCSCB
p363
aVCSCB
p364
aVCSCB
p365
aVCSEB
p366
aVCSFT
p367
aVCSP
p368
aVCSPB
p369
aVCSSB
p370
aVCSSB
p371
aVCSSB
p372
aVCSSB
p373
aVCSSB
p374
aVCSSV
p375
aVCST
p376
aVCST
p377
aVCSWM
p378
aVCTCB
p379
aVCTCB
p380
aVCTFP
p381
aVCTLB
p382
aVCTLB
p383
aVCTR
p384
aVCTSB
p385
aVCUBE
p386
aVCVB
p387
aVDAH
p388
aVDBBD
p389
aVDBBS
p390
aVDBC
p391
aVDBC
p392
aVDBI
p393
aVDBIG
p394
aVDBJC
p395
aVDBO
p396
aVDBRM
p397
aVDBSP
p398
aVDBTG
p399
aVDCBB
p400
aVDDC
p401
aVDENS
p402
aVDFLB
p403
aVDGCB
p404
aVDMCB
p405
aVDNA
p406
aVDOBS
p407
aVDOCMA
p408
aVDPB
p409
aVDPCB
p410
aVDSBS
p411
aVDSCB
p412
aVDSEB
p413
aVDSHB
p414
aVDUSP8
p415
aVEAB
p416
aVEBE
p417
aVEBE
p418
aVEBO
p419
aVEBOLA
p420
aVEBRC
p421
aVECAD
p422
aVECBM
p423
aVECCB
p424
aVECCB
p425
aVECM
p426
aVECM
p427
aVECPB
p428
aVEDDMapS
p429
aVEDRR
p430
aVEDRR
p431
aVEEB
p432
aVEEB
p433
aVEECB
p434
aVEECB
p435
aVEETS
p436
aVEFB
p437
aVEGFR
p438
aVEMB
p439
aVEMBS
p440
aVEMBS
p441
aVENCC(s)
p442
aVEOBT
p443
aVEOBT
p444
aVEOBU
p445
aVEOEB
p446
aVEPB
p447
aVEPRG
p448
aVERRG
p449
aVESBL
p450
aVESS
p451
aVFADU
p452
aVFAPB
p453
aVFASEB
p454
aVFBAP
p455
aVFBBR
p456
aVFBRC
p457
aVFBRC
p458
aVFBRC
p459
aVFBSA
p460
aVFBTD
p461
aVFCAR
p462
aVFDC(s)
p463
aVFETT
p464
aVFGFR
p465
aVFGTB
p466
aVFLAP
p467
aVFLBS
p468
aVFMBA
p469
aVFMBC
p470
aVFNBCP
p471
aVFPIA
p472
aVFRBM
p473
aVFRMS
p474
aVFROS
p475
aVFSC
p476
aVFSH
p477
aVFSL
p478
aVFSSB
p479
aVGABS
p480
aVGADV
p481
aVGBCB
p482
aVGBCB
p483
aVGBE
p484
aVGBU
p485
aVGCB
p486
aVGCB
p487
aVGDBC
p488
aVGDCB
p489
aVGDTC
p490
aVGGIF
p491
aVGGM
p492
aVGGOH
p493
aVGIBS
p494
aVGLC
p495
aVGMB
p496
aVGMBD
p497
aVGMO
p498
aVGOMF
p499
aVGPCR
p500
aVGPCR
p501
aVGPLR
p502
aVGRIRDM
p503
aVGRTC
p504
aVGSI
p505
aVGTMB
p506
aVGTMB
p507
aVGWH
p508
aVHBA
p509
aVHBAL
p510
aVHBD
p511
aVHBS
p512
aVHBW
p513
aVHCBI
p514
aVHFA
p515
aVHIGH
p516
aVHILIC
p517
aVHIMB
p518
aVHIPV
p519
aVHPC
p520
aVHPIF
p521
aVHPIF
p522
aVHPRT
p523
aVHRMA
p524
aVHSMB
p525
aVHTU
p526
aVHWBFI
p527
aVIAB
p528
aVIABD
p529
aVIABS
p530
aVIABT
p531
aVIABT
p532
aVIASB
p533
aVIBBA
p534
aVIBBS
p535
aVIBBTF
p536
aVIBCB
p537
aVIBCB
p538
aVIBEM
p539
aVIBMB
p540
aVIBMB
p541
aVIBO
p542
aVIBO
p543
aVIBP
p544
aVIBP
p545
aVIBRD
p546
aVIBSB
p547
aVIBV
p548
aVICABS
p549
aVICB
p550
aVICB
p551
aVICBF
p552
aVICBMA
p553
aVICBN
p554
aVICBP
p555
aVICBP
p556
aVICBR
p557
aVICCBS
p558
aVICCBS
p559
aVICCBS
p560
aVICMB
p561
aVICMB
p562
aVICNCP
p563
aVICRB
p564
aVICVB
p565
aVICVCN
p566
aVIDBC
p567
aVIDBD
p568
aVIDBD
p569
aVIEB
p570
aVIEB
p571
aVIFB
p572
aVIGB
p573
aVIGBP
p574
aViGEM
p575
aVIGSB
p576
aVIHB
p577
aVIHG
p578
aVIICB
p579
aVIJA
p580
aVIJB
p581
aVILBP
p582
aVIMB
p583
aVIMBE
p584
aVIMBG
p585
aVIMBR
p586
aVIMCB
p587
aVIMISWG
p588
aVIMPB
p589
aVIMSB
p590
aVIMV
p591
aVIMV
p592
aVINAB
p593
aVINAB
p594
aVINB
p595
aVIPAMS
p596
aVIPBB
p597
aVIPBS
p598
aVIPC
p599
aVIPNB
p600
aVISABS
p601
aVISACB
p602
aVISAP
p603
aVISB
p604
aVISB
p605
aVISBC
p606
aVISBM
p607
aVISBM
p608
aVISBW
p609
aVISCB
p610
aVISCB
p611
aVISIB
p612
aVISMB
p613
aVISMB
p614
aVISMB
p615
aVISMB
p616
aVISNB
p617
aVISPB
p618
aVISPP
p619
aVISRB
p620
aVISSB
p621
aVISSB
p622
aVISSB
p623
aVISSM
p624
aVITB
p625
aVITBC
p626
aVITIS
p627
aVIVB
p628
aVJAMB
p629
aVJBIC
p630
aVJCM
p631
aVJID
p632
aVJMCB
p633
aVJNBR
p634
aVJSB
p635
aVJTB
p636
aVKBS
p637
aVKBS
p638
aVKBSI
p639
aVKPBS
p640
aVKPCOFGS
p641
aVLAF
p642
aVLARB
p643
aVLBA
p644
aVLCB
p645
aVLCMB
p646
aVLCMB
p647
aVLCMI
p648
aVLDPH
p649
aVLEBS
p650
aVLECB
p651
aVLERB
p652
aVLHB
p653
aVLIMBS
p654
aVLLBB
p655
aVLLMP
p656
aVLMAT
p657
aVLMB
p658
aVLMM
p659
aVLMM
p660
aVLNCB
p661
aVLOBS
p662
aVLRB
p663
aVLRB
p664
aVLRB
p665
aVLRBG
p666
aVLRBM
p667
aVLRP
p668
aVLSDB
p669
aVLSI
p670
aVLTPB
p671
aVLW-PLS-DA
p672
aVMAB
p673
aVMABS
p674
aVMABT
p675
aVMABT
p676
aVMAM
p677
aVMAPK
p678
aVMBAF
p679
aVMBB
p680
aVMBBB
p681
aVMBC
p682
aVMBC
p683
aVMBCF
p684
aVMBCF
p685
aVMBCN
p686
aVMBE
p687
aVMBE
p688
aVMBEC
p689
aVMBG
p690
aVMBHD
p691
aVMBHD
p692
aVMBI
p693
aVMBQ
p694
aVMBRB
p695
aVMBRD
p696
aVMBRI
p697
aVMBS
p698
aVMBSS
p699
aVMBT
p700
aVMBWT
p701
aVMCB
p702
aVMCB
p703
aVMCB
p704
aVMCB
p705
aVMCCB
p706
aVMCEB
p707
aVMCEB
p708
aVMCMB
p709
aVMCOB
p710
aVMCP
p711
aVMCSB
p712
aVMCSB
p713
aVMCT
p714
aVMEB
p715
aVMGCB
p716
aVMGCB
p717
aVMGSG
p718
aVMHNC
p719
aVMIBBI
p720
aVMICB
p721
aVMIID
p722
aVMILCA
p723
aVMIPM
p724
aVMIPM
p725
aVMLBS
p726
aVMLCB
p727
aVMLCB
p728
aVMLNC
p729
aVMLSB
p730
aVMMB
p731
aVMMB
p732
aVMMBB
p733
aVMMBD
p734
aVMMBD
p735
aVMMBR
p736
aVMMBS
p737
aVMMCB
p738
aVMMI
p739
aVMMSB
p740
aVMMSB
p741
aVMNL
p742
aVMOHS
p743
aVMSA(s)
p744
aVMSB
p745
aVMSB
p746
aVMSIB
p747
aVMSSB
p748
aVMSW
p749
aVMTB
p750
aVMTBI
p751
aVMVB
p752
aVMVM
p753
aVMWFB
p754
aVNABT
p755
aVNACB
p756
aVNBC
p757
aVNBCD
p758
aVNBCD
p759
aVNBCL
p760
aVNBI
p761
aVNBRC
p762
aVNBSA
p763
aVNCB
p764
aVNCBI
p765
aVNCC(s)
p766
aVNCSB
p767
aVNCSB
p768
aVNCTC
p769
aVNEB
p770
aVNEBD
p771
aVNEMB
p772
aVNEVO
p773
aVNF-KB
p774
aVNFL
p775
aVNGS
p776
aVNHCI
p777
aVNHE
p778
aVNIB
p779
aVNIBA
p780
aVNIPI
p781
aVNISB
p782
aVNISB
p783
aVNMBL
p784
aVNME
p785
aVNML
p786
aVNMPB
p787
aVNPCD
p788
aVNRBE
p789
aVNRBI
p790
aVNRBP
p791
aVNRBP
p792
aVNRLT
p793
aVNRRL
p794
aVNSEB
p795
aVNTHE
p796
aVNTM
p797
aVNVBF
p798
aVOBCS
p799
aVOBFS
p800
aVOBIAS
p801
aVOBIS
p802
aVOBP
p803
aVOCCB
p804
aVODFP
p805
aVOFW
p806
aVOHBR
p807
aVOISP
p808
aVOMIG
p809
aVOMTS
p810
aVOPB
p811
aVOUB
p812
aVPAWG
p813
aVPBBM
p814
aVPBBP
p815
aVPBBS
p816
aVPBCB
p817
aVPBCS
p818
aVPBS
p819
aVPCBC
p820
aVPCMB
p821
aVPCMB
p822
aVPCMB
p823
aVPCMB
p824
aVPCNP
p825
aVPCO
p826
aVPCOFGS
p827
aVPCR
p828
aVPCRH
p829
aVPDCAAS
p830
aVPDPR
p831
aVPEB
p832
aVPFMS
p833
aVPFRP
p834
aVPGM
p835
aVPIBO
p836
aVPIBS
p837
aVPLC
p838
aVPLH
p839
aVPLLB
p840
aVPLS-DA
p841
aVPLWB
p842
aVPMB
p843
aVPMB
p844
aVPMBB
p845
aVPMBB
p846
aVPMF
p847
aVPMNs
p848
aVPMPB
p849
aVPMPB
p850
aVPNAN
p851
aVPNL
p852
aVPOBE
p853
aVPQB
p854
aVPRCAD
p855
aVQBI
p856
aVQCB
p857
aVQCB
p858
aVQHEI
p859
aVQMH
p860
aVQSB
p861
aVQUBS
p862
aVQUBS
p863
aVRAA
p864
aVRABP
p865
aVRAGE
p866
aVRBA
p867
aVRBC
p868
aVRBE
p869
aVRCMB
p870
aVRCS
p871
aVRCTB
p872
aVRHAG
p873
aVRIP
p874
aVRPCF
p875
aVRRBI
p876
aVRSB
p877
aVRSPL
p878
aVRTCA
p879
aVRUDP
p880
aVRUNX1
p881
aVRUNX2
p882
aVRUNX3
p883
aVSABS
p884
aVSACON
p885
aVSALB
p886
aVSAMBA
p887
aVSASM
p888
aVSASM
p889
aVSBC
p890
aVSBCB
p891
aVSBDV
p892
aVSBE
p893
aVSBFC
p894
aVSBFC
p895
aVSBHD
p896
aVSBI
p897
aVSBI
p898
aVSBL
p899
aVSBMC
p900
aVSBMI
p901
aVSBMR
p902
aVSBO
p903
aVSBO
p904
aVSBRG
p905
aVSBRL
p906
aVSBRS
p907
aVSBS
p908
aVSBSC
p909
aVSBSI
p910
aVSBSR
p911
aVSBV
p912
aVSBV
p913
aVSCB
p914
aVSCBD
p915
aVSCBI
p916
aVSCBI
p917
aVSCBI
p918
aVSCFA
p919
aVSCOB
p920
aVSCOBY
p921
aVSCOP
p922
aVSCRR
p923
aVSDFO
p924
aVSEBS
p925
aVSFG
p926
aVSGPT
p927
aVSHBG
p928
aVSIB
p929
aVSJMR
p930
aVSLB
p931
aVSLOSS
p932
aVSLW
p933
aVSMB
p934
aVSMBB
p935
aVSMBB
p936
aVSMCB
p937
aVSNAB
p938
aVSNDN
p939
aVSNP
p940
aVSPBO
p941
aVSPOL
p942
aVSPP
p943
aVSPP
p944
aVSRBT
p945
aVSSBA
p946
aVSSP
p947
aVSSPB
p948
aVSSTFs
p949
aVSTORM
p950
aVSTTB
p951
aVSZM
p952
aVTABM
p953
aVTABT
p954
aVTAMC
p955
aVTAO
p956
aVTBMM
p957
aVTCR
p958
aVTDMD
p959
aVTFBS
p960
aVTFR
p961
aVTGF
p962
aVTGFB
p963
aVTHP
p964
aVTIBS
p965
aVTIBS
p966
aVTIC
p967
aVTILB
p968
aVTKR
p969
aVTMA
p970
aVTMBS
p971
aVTOC
p972
aVTPIG
p973
aVTREMBL
p974
aVTRGF
p975
aVTSA
p976
aVTSE
p977
aVTSMB
p978
aVTST
p979
aVTUBD
p980
aVUAFB
p981
aVUNCBD
p982
aVUNRIP
p983
aVUPS
p984
aVURPB
p985
aVVBC
p986
aVVBT
p987
aVVBU
p988
aVVDRA
p989
aVVENUS
p990
aVVIOLET
p991
aVVLB
p992
aVVMB
p993
aVVNH
p994
aVVOB
p995
aVWABT
p996
aVWBP
p997
aVWCBP
p998
aVWCMB
p999
aVWED
p1000
aVWGRH
p1001
aVWHER
p1002
aVWOMB
p1003
aVWPBO
p1004
aVWPBR
p1005
aVWSBM
p1006
aVWTSE
p1007
aVWWMB
p1008
aVXPG
p1009
aVYCL
p1010
aVYDLB
p1011
aVYNL
p1012
aVZFN
p1013
a.