(lp1
S'Ym3'
p2
aS'Zm3'
p3
aS'Em3'
p4
aS'Pm3'
p5
aS'Tm3'
p6
aS'Gm3'
p7
aS'Mm3'
p8
aS'km3'
p9
aS'hm3'
p10
aS'dam3'
p11
aS'dm3'
p12
aS'cm3'
p13
aS'\\u03bcm3'
p14
aS'nm3'
p15
aS'pm3'
p16
aS'fm3'
p17
aS'am3'
p18
aS'zm3'
p19
aS'ym3'
p20
aS'cubic yottameter'
p21
aS'cubic zettameter'
p22
aS'cubic exameter'
p23
aS'cubic petameter'
p24
aS'cubic terameter'
p25
aS'cubic gigameter'
p26
aS'cubic megameter'
p27
aS'cubic kilometer'
p28
aS'cubic hectometer'
p29
aS'cubic decameter'
p30
aS'cubic decimeter'
p31
aS'cubic centimeter'
p32
aS'cubic micrometer'
p33
aS'cubic nanometer'
p34
aS'cubic picometer'
p35
aS'cubic femtometer'
p36
aS'cubic attometer'
p37
aS'cubic zeptometer'
p38
aS'cubic yoctometer'
p39
aS'YL'
p40
aS'yottaliter'
p41
aS'zettaliter'
p42
aS'exaliter'
p43
aS'petaliter'
p44
aS'teraliter'
p45
aS'gigaliter'
p46
aS'megaliter'
p47
aS'kiloliter'
p48
aS'hectoliter'
p49
aS'decaliter'
p50
aS'deciliter'
p51
aS'centiliter'
p52
aS'microliter'
p53
aS'nanoliter'
p54
aS'picoliter'
p55
aS'femtoliter'
p56
aS'attoliter'
p57
aS'zeptoliter'
p58
aS'yoctoliter'
p59
aS'ZL'
p60
aS'EL'
p61
aS'PL'
p62
aS'TL'
p63
aS'GL'
p64
aS'ML'
p65
aS'kL'
p66
aS'hL'
p67
aS'daL'
p68
aS'dL'
p69
aS'cL'
p70
aS'\\u03bcL'
p71
aS'nL'
p72
aS'pL'
p73
aS'fL'
p74
aS'aL'
p75
aS'zL'
p76
aS'yL'
p77
aS'Yg'
p78
aS'yottagram'
p79
aS'zettagram'
p80
aS'exagram'
p81
aS'petagram'
p82
aS'teragram'
p83
aS'gigagram'
p84
aS'megagram'
p85
aS'kilogram'
p86
aS'hectogram'
p87
aS'decagram'
p88
aS'decigram'
p89
aS'centigram'
p90
aS'microgram'
p91
aS'nanogram'
p92
aS'picogram'
p93
aS'femtogram'
p94
aS'attogram'
p95
aS'zeptogram'
p96
aS'yoctogram'
p97
aS'Zg'
p98
aS'Eg'
p99
aS'Pg'
p100
aS'Tg'
p101
aS'Gg'
p102
aS'Mg'
p103
aS'kg'
p104
aS'hg'
p105
aS'dag'
p106
aS'dg'
p107
aS'cg'
p108
aS'\\u03bcg'
p109
aS'ng'
p110
aS'pg'
p111
aS'fg'
p112
aS'ag'
p113
aS'zg'
p114
aS'yg'
p115
aS'Ymol'
p116
aS'yottamoles'
p117
aS'zettamoles'
p118
aS'examoles'
p119
aS'petamoles'
p120
aS'teramoles'
p121
aS'gigamoles'
p122
aS'megamoles'
p123
aS'kilomoles'
p124
aS'hectomoles'
p125
aS'decamoles'
p126
aS'decimoles'
p127
aS'centimoles'
p128
aS'micromoles'
p129
aS'nanomoles'
p130
aS'picomoles'
p131
aS'femtomoles'
p132
aS'attomoles'
p133
aS'zeptomoles'
p134
aS'yoctomoles'
p135
aS'Zmol'
p136
aS'Emol'
p137
aS'Pmol'
p138
aS'Tmol'
p139
aS'Gmol'
p140
aS'Mmol'
p141
aS'kmol'
p142
aS'hmol'
p143
aS'damol'
p144
aS'dmol'
p145
aS'cmol'
p146
aS'\\u03bcmol'
p147
aS'nmol'
p148
aS'pmol'
p149
aS'fmol'
p150
aS'amol'
p151
aS'zmol'
p152
aS'ymol'
p153
aS'Ymol/L'
p154
aS'Ymol per liter'
p155
aS'yottamoles/L'
p156
aS'yottamoles per liter'
p157
aS'zettamoles/L'
p158
aS'zettamoles per liter'
p159
aS'examoles/L'
p160
aS'examoles per liter'
p161
aS'petamoles/L'
p162
aS'petamoles per liter'
p163
aS'teramoles/L'
p164
aS'teramoles per liter'
p165
aS'gigamoles/L'
p166
aS'gigamoles per liter'
p167
aS'megamoles/L'
p168
aS'megamoles per liter'
p169
aS'kilomoles/L'
p170
aS'kilomoles per liter'
p171
aS'hectomoles/L'
p172
aS'hectomoles per liter'
p173
aS'decamoles/L'
p174
aS'decamoles per liter'
p175
aS'decimoles/L'
p176
aS'decimoles per liter'
p177
aS'centimoles/L'
p178
aS'centimoles per liter'
p179
aS'micromoles/L'
p180
aS'micromoles per liter'
p181
aS'nanomoles/L'
p182
aS'nanomoles per liter'
p183
aS'picomoles/L'
p184
aS'picomoles per liter'
p185
aS'femtomoles/L'
p186
aS'femtomoles per liter'
p187
aS'attomoles/L'
p188
aS'attomoles per liter'
p189
aS'zeptomoles/L'
p190
aS'zeptomoles per liter'
p191
aS'yoctomoles/L'
p192
aS'yoctomoles per liter'
p193
aS'Zmol/L'
p194
aS'Zmol per liter'
p195
aS'Emol/L'
p196
aS'Emol per liter'
p197
aS'Pmol/L'
p198
aS'Pmol per liter'
p199
aS'Tmol/L'
p200
aS'Tmol per liter'
p201
aS'Gmol/L'
p202
aS'Gmol per liter'
p203
aS'Mmol/L'
p204
aS'Mmol per liter'
p205
aS'kmol/L'
p206
aS'kmol per liter'
p207
aS'hmol/L'
p208
aS'hmol per liter'
p209
aS'damol/L'
p210
aS'damol per liter'
p211
aS'dmol/L'
p212
aS'dmol per liter'
p213
aS'cmol/L'
p214
aS'cmol per liter'
p215
aS'\\u03bcmol/L'
p216
aS'\\u03bcmol per liter'
p217
aS'nmol/L'
p218
aS'nmol per liter'
p219
aS'pmol/L'
p220
aS'pmol per liter'
p221
aS'fmol/L'
p222
aS'fmol per liter'
p223
aS'amol/L'
p224
aS'amol per liter'
p225
aS'zmol/L'
p226
aS'zmol per liter'
p227
aS'ymol/L'
p228
aS'ymol per liter'
p229
aS'Yg/L'
p230
aS'Yg per liter'
p231
aS'Yg/m3'
p232
aS'Yg per cubic meter'
p233
aS'yottagram/L'
p234
aS'yottagram per liter'
p235
aS'yottagram/m3'
p236
aS'yottagram per cubic meter'
p237
aS'zettagram/L'
p238
aS'zettagram per liter'
p239
aS'zettagram/m3'
p240
aS'zettagram per cubic meter'
p241
aS'exagram/L'
p242
aS'exagram per liter'
p243
aS'exagram/m3'
p244
aS'exagram per cubic meter'
p245
aS'petagram/L'
p246
aS'petagram per liter'
p247
aS'petagram/m3'
p248
aS'petagram per cubic meter'
p249
aS'teragram/L'
p250
aS'teragram per liter'
p251
aS'teragram/m3'
p252
aS'teragram per cubic meter'
p253
aS'gigagram/L'
p254
aS'gigagram per liter'
p255
aS'gigagram/m3'
p256
aS'gigagram per cubic meter'
p257
aS'megagram/L'
p258
aS'megagram per liter'
p259
aS'megagram/m3'
p260
aS'megagram per cubic meter'
p261
aS'kilogram/L'
p262
aS'kilogram per liter'
p263
aS'kilogram/m3'
p264
aS'kilogram per cubic meter'
p265
aS'hectogram/L'
p266
aS'hectogram per liter'
p267
aS'hectogram/m3'
p268
aS'hectogram per cubic meter'
p269
aS'decagram/L'
p270
aS'decagram per liter'
p271
aS'decagram/m3'
p272
aS'decagram per cubic meter'
p273
aS'decigram/L'
p274
aS'decigram per liter'
p275
aS'decigram/m3'
p276
aS'decigram per cubic meter'
p277
aS'centigram/L'
p278
aS'centigram per liter'
p279
aS'centigram/m3'
p280
aS'centigram per cubic meter'
p281
aS'microgram/L'
p282
aS'microgram per liter'
p283
aS'microgram/m3'
p284
aS'microgram per cubic meter'
p285
aS'nanogram/L'
p286
aS'nanogram per liter'
p287
aS'nanogram/m3'
p288
aS'nanogram per cubic meter'
p289
aS'picogram/L'
p290
aS'picogram per liter'
p291
aS'picogram/m3'
p292
aS'picogram per cubic meter'
p293
aS'femtogram/L'
p294
aS'femtogram per liter'
p295
aS'femtogram/m3'
p296
aS'femtogram per cubic meter'
p297
aS'attogram/L'
p298
aS'attogram per liter'
p299
aS'attogram/m3'
p300
aS'attogram per cubic meter'
p301
aS'zeptogram/L'
p302
aS'zeptogram per liter'
p303
aS'zeptogram/m3'
p304
aS'zeptogram per cubic meter'
p305
aS'yoctogram/L'
p306
aS'yoctogram per liter'
p307
aS'yoctogram/m3'
p308
aS'yoctogram per cubic meter'
p309
aS'Zg/L'
p310
aS'Zg per liter'
p311
aS'Zg/m3'
p312
aS'Zg per cubic meter'
p313
aS'Eg/L'
p314
aS'Eg per liter'
p315
aS'Eg/m3'
p316
aS'Eg per cubic meter'
p317
aS'Pg/L'
p318
aS'Pg per liter'
p319
aS'Pg/m3'
p320
aS'Pg per cubic meter'
p321
aS'Tg/L'
p322
aS'Tg per liter'
p323
aS'Tg/m3'
p324
aS'Tg per cubic meter'
p325
aS'Gg/L'
p326
aS'Gg per liter'
p327
aS'Gg/m3'
p328
aS'Gg per cubic meter'
p329
aS'Mg/L'
p330
aS'Mg per liter'
p331
aS'Mg/m3'
p332
aS'Mg per cubic meter'
p333
aS'kg/L'
p334
aS'kg per liter'
p335
aS'kg/m3'
p336
aS'kg per cubic meter'
p337
aS'hg/L'
p338
aS'hg per liter'
p339
aS'hg/m3'
p340
aS'hg per cubic meter'
p341
aS'dag/L'
p342
aS'dag per liter'
p343
aS'dag/m3'
p344
aS'dag per cubic meter'
p345
aS'dg/L'
p346
aS'dg per liter'
p347
aS'dg/m3'
p348
aS'dg per cubic meter'
p349
aS'cg/L'
p350
aS'cg per liter'
p351
aS'cg/m3'
p352
aS'cg per cubic meter'
p353
aS'\\u03bcg/L'
p354
aS'\\u03bcg per liter'
p355
aS'\\u03bcg/m3'
p356
aS'\\u03bcg per cubic meter'
p357
aS'ng/L'
p358
aS'ng per liter'
p359
aS'ng/m3'
p360
aS'ng per cubic meter'
p361
aS'pg/L'
p362
aS'pg per liter'
p363
aS'pg/m3'
p364
aS'pg per cubic meter'
p365
aS'fg/L'
p366
aS'fg per liter'
p367
aS'fg/m3'
p368
aS'fg per cubic meter'
p369
aS'ag/L'
p370
aS'ag per liter'
p371
aS'ag/m3'
p372
aS'ag per cubic meter'
p373
aS'zg/L'
p374
aS'zg per liter'
p375
aS'zg/m3'
p376
aS'zg per cubic meter'
p377
aS'yg/L'
p378
aS'yg per liter'
p379
aS'yg/m3'
p380
aS'yg per cubic meter'
p381
a.